target datalayout = "e-m:e-p270:32:32-p271:32:32-p272:64:64-i64:64-i128:128-f80:128-n8:16:32:64-S128"
target triple = "x86_64-pc-linux-gnu"

%struct.crtmgr = type { ptr, i32 }

; Function Attrs: nounwind uwtable
define void @crtmgr_free(ptr noundef %0) #0 {
  %2 = alloca ptr, align 8
  store ptr %0, ptr %2, align 8
  br label %3

3:                                                ; preds = %8, %1
  %4 = load ptr, ptr %2, align 8
  %5 = getelementptr inbounds %struct.crtmgr, ptr %4, i32 0, i32 1
  %6 = load i32, ptr %5, align 8
  %7 = icmp ne i32 %6, 0
  br i1 %7, label %8, label %13

8:                                                ; preds = %3
  %9 = load ptr, ptr %2, align 8
  %10 = load ptr, ptr %2, align 8
  %11 = getelementptr inbounds %struct.crtmgr, ptr %10, i32 0, i32 0
  %12 = load ptr, ptr %11, align 8
  call void @crtmgr_del(ptr noundef %9, ptr noundef %12)
  br label %3

13:                                               ; preds = %3
  ret void
}