; Function Attrs: nounwind uwtable
define void @crtmgr_free(ptr nocapture noundef %0) local_unnamed_addr #0 {
  %2 = getelementptr inbounds i8, ptr %0, i64 8
  %3 = load i32, ptr %2, align 8
  %.not3 = icmp eq i32 %3, 0
  br i1 %.not3, label %._crit_edge, label %.lr.ph

.lr.ph:                                           ; preds = %1, %.lr.ph
  %4 = load ptr, ptr %0, align 8
  tail call void @crtmgr_del(ptr noundef nonnull %0, ptr noundef %4)
  %5 = load i32, ptr %2, align 8
  %.not = icmp eq i32 %5, 0
  br i1 %.not, label %._crit_edge, label %.lr.ph

._crit_edge:                                      ; preds = %.lr.ph, %1
  ret void
}